Certificate:
    Data:
        Version: 3 (0x2)
        Serial Number:
            36:a8:2f:83:24:32:71:c8
    Signature Algorithm: sha256WithRSAEncryption
        Issuer: C=FR, O=Mon Organisme, OU=0002 147258369, OU=OpenSSL TLS Subordinate CA
        Validity
            Not Before: Apr 14 08:51:08 2012 GMT
            Not After : Apr 14 08:51:08 2013 GMT
        Subject: jurC=FR/businessCategory=Private Organization/serialNumber=789456123, C=FR/postalCode=99000, ST=France, L=Ma Ville/street=1 rue du Village, O=Ma Boutique, OU=0002 789456123, CN=localhost
        Subject Public Key Info:
            Public Key Algorithm: rsaEncryption
                Public-Key: (2048 bit)
                Modulus:
                    00:d3:c2:27:c6:5a:ab:ac:de:ef:cb:05:f0:a5:fe:
                    ce:52:86:39:f9:9f:4b:a7:f7:dd:3a:67:da:03:62:
                    93:ca:21:e6:8c:cc:ff:b2:a0:39:92:df:f4:d0:0e:
                    ea:6a:a8:8d:34:36:22:66:79:cb:9f:78:3d:c6:f3:
                    5f:24:68:77:a9:c6:6f:c8:d1:7a:c7:6f:50:3b:ac:
                    80:8b:29:f1:92:75:65:26:a9:ee:35:4c:f3:5b:49:
                    04:6d:30:f2:03:91:4a:fe:39:5c:47:29:94:7b:f0:
                    28:18:34:1b:fc:d7:65:de:2c:65:a2:d9:fe:b7:fa:
                    e9:15:25:32:45:cf:fd:de:3a:a7:66:89:0b:3f:55:
                    49:ee:c6:58:6e:ed:13:5e:99:3b:c1:e2:bf:28:62:
                    3f:fe:cb:8d:ad:7b:61:48:28:ee:22:06:54:3d:92:
                    17:b9:8a:72:26:f0:f4:43:b1:ba:16:30:25:ca:f2:
                    ac:b8:0d:98:1f:d0:21:dd:5c:79:1f:d1:18:a4:10:
                    eb:b2:f2:17:67:a1:f9:20:a8:9a:08:f0:58:b0:5f:
                    46:3d:97:5e:ce:69:21:33:bc:be:b3:5c:93:50:7e:
                    be:d1:14:30:58:93:ea:96:b1:36:91:d2:74:5c:61:
                    30:7b:c2:81:e7:3b:0f:c1:db:7c:92:ec:66:15:3d:
                    cf:47
                Exponent: 65537 (0x10001)
        X509v3 extensions:
            X509v3 Subject Key Identifier: 
                A2:3D:D4:87:56:89:F8:65:9B:67:AB:82:4A:BB:AE:42:D8:F6:30:E3
            X509v3 Authority Key Identifier: 
                keyid:32:64:04:01:06:2B:D9:98:29:DB:01:25:D1:83:B6:EA:CC:A7:37:84

            X509v3 Key Usage: critical
                Digital Signature, Key Encipherment
            X509v3 Certificate Policies: 
                Policy: 1.2.840.113556.1.8000.2554.29563.49294.43847.16581.44480.6974059.2493436.1.3
                  CPS: http://tiny.cc/aj8hcw

            X509v3 CRL Distribution Points: 

                Full Name:
                  URI:http://localhost/tls-subca-crl.der

            X509v3 Basic Constraints: critical
                CA:FALSE
            X509v3 Extended Key Usage: 
                TLS Web Server Authentication
            Authority Information Access: 
                OCSP - URI:http://ocsp-subca

    Signature Algorithm: sha256WithRSAEncryption
         97:13:c8:b5:c9:ea:13:38:c8:f7:f7:ef:74:41:d4:0d:d1:8e:
         45:98:07:8f:30:06:f6:17:60:c5:8c:a7:76:b4:1a:b5:03:26:
         d2:56:04:52:ee:0d:54:7a:83:0e:f8:ae:95:89:d9:5c:eb:46:
         93:0e:61:56:95:bc:80:3c:fe:ed:4d:1d:db:57:2a:64:ee:8f:
         18:25:a1:38:1c:c7:2a:b4:f6:3b:be:61:d3:2d:c1:6f:29:1f:
         64:2f:11:79:2f:e6:01:08:55:30:da:76:93:72:cd:c2:30:3b:
         f3:c3:fd:a4:96:b9:2c:25:e5:2f:59:00:64:d5:d2:ca:b8:54:
         fe:b3:0b:a7:aa:65:df:95:51:a0:ae:b0:ab:c9:8f:d1:66:4e:
         ba:36:1c:1b:42:78:f8:6e:a9:3a:55:59:55:cf:31:2c:10:26:
         1b:9c:23:2b:c3:3c:52:a5:75:14:04:6c:6f:d4:3f:39:c0:b7:
         21:1f:0b:5e:68:13:f6:49:77:de:52:1b:37:5d:3f:44:42:58:
         dd:35:c4:35:77:12:aa:d3:0c:b7:b8:77:f8:19:fe:a4:b6:e8:
         9f:3a:85:7d:6e:f6:d8:ea:b7:d3:2f:c9:89:d3:27:8e:7d:a8:
         3a:53:d0:f6:03:87:95:11:f8:a7:e2:29:4e:19:35:65:39:2d:
         b6:c3:0b:99
-----BEGIN CERTIFICATE-----
MIIFAjCCA+qgAwIBAgIINqgvgyQyccgwDQYJKoZIhvcNAQELBQAwYzELMAkGA1UE
BhMCRlIxFjAUBgNVBAoTDU1vbiBPcmdhbmlzbWUxFzAVBgNVBAsTDjAwMDIgMTQ3
MjU4MzY5MSMwIQYDVQQLExpPcGVuU1NMIFRMUyBTdWJvcmRpbmF0ZSBDQTAeFw0x
MjA0MTQwODUxMDhaFw0xMzA0MTQwODUxMDhaMIHnMRMwEQYLKwYBBAGCNzwCAQMT
AkZSMR0wGwYDVQQPExRQcml2YXRlIE9yZ2FuaXphdGlvbjESMBAGA1UEBRMJNzg5
NDU2MTIzMQswCQYDVQQGEwJGUjEOMAwGA1UEERMFOTkwMDAxDzANBgNVBAgTBkZy
YW5jZTERMA8GA1UEBxMITWEgVmlsbGUxGTAXBgNVBAkTEDEgcnVlIGR1IFZpbGxh
Z2UxFDASBgNVBAoTC01hIEJvdXRpcXVlMRcwFQYDVQQLEw4wMDAyIDc4OTQ1NjEy
MzESMBAGA1UEAxMJbG9jYWxob3N0MIIBIjANBgkqhkiG9w0BAQEFAAOCAQ8AMIIB
CgKCAQEA08InxlqrrN7vywXwpf7OUoY5+Z9Lp/fdOmfaA2KTyiHmjMz/sqA5kt/0
0A7qaqiNNDYiZnnLn3g9xvNfJGh3qcZvyNF6x29QO6yAiynxknVlJqnuNUzzW0kE
bTDyA5FK/jlcRymUe/AoGDQb/Ndl3ixlotn+t/rpFSUyRc/93jqnZokLP1VJ7sZY
bu0TXpk7weK/KGI//suNrXthSCjuIgZUPZIXuYpyJvD0Q7G6FjAlyvKsuA2YH9Ah
3Vx5H9EYpBDrsvIXZ6H5IKiaCPBYsF9GPZdezmkhM7y+s1yTUH6+0RQwWJPqlrE2
kdJ0XGEwe8KB5zsPwdt8kuxmFT3PRwIDAQABo4IBMzCCAS8wHQYDVR0OBBYEFKI9
1IdWifhlm2ergkq7rkLY9jDjMB8GA1UdIwQYMBaAFDJkBAEGK9mYKdsBJdGDturM
pzeEMA4GA1UdDwEB/wQEAwIFoDBWBgNVHSAETzBNMEsGJCqGSIb3FAG+QJN6geZ7
g4EOgtZHgYFFgttAg6nUa4GYl3wBAzAjMCEGCCsGAQUFBwIBFhVodHRwOi8vdGlu
eS5jYy9hajhoY3cwMwYDVR0fBCwwKjAooCagJIYiaHR0cDovL2xvY2FsaG9zdC90
bHMtc3ViY2EtY3JsLmRlcjAMBgNVHRMBAf8EAjAAMBMGA1UdJQQMMAoGCCsGAQUF
BwMBMC0GCCsGAQUFBwEBBCEwHzAdBggrBgEFBQcwAYYRaHR0cDovL29jc3Atc3Vi
Y2EwDQYJKoZIhvcNAQELBQADggEBAJcTyLXJ6hM4yPf373RB1A3RjkWYB48wBvYX
YMWMp3a0GrUDJtJWBFLuDVR6gw74rpWJ2VzrRpMOYVaVvIA8/u1NHdtXKmTujxgl
oTgcxyq09ju+YdMtwW8pH2QvEXkv5gEIVTDadpNyzcIwO/PD/aSWuSwl5S9ZAGTV
0sq4VP6zC6eqZd+VUaCusKvJj9FmTro2HBtCePhuqTpVWVXPMSwQJhucIyvDPFKl
dRQEbG/UPznAtyEfC15oE/ZJd95SGzddP0RCWN01xDV3EqrTDLe4d/gZ/qS26J86
hX1u9tjqt9MvyYnTJ459qDpT0PYDh5UR+KfiKU4ZNWU5LbbDC5k=
-----END CERTIFICATE-----
Certificate:
    Data:
        Version: 3 (0x2)
        Serial Number:
            e6:57:22:84:53:1c:79:87
    Signature Algorithm: sha256WithRSAEncryption
        Issuer: C=FR, O=Mon Organisme, OU=0002 147258369, OU=OpenSSL TLS Root CA
        Validity
            Not Before: Apr 14 08:51:06 2012 GMT
            Not After : Apr 14 08:51:06 2018 GMT
        Subject: C=FR, O=Mon Organisme, OU=0002 147258369, OU=OpenSSL TLS Subordinate CA
        Subject Public Key Info:
            Public Key Algorithm: rsaEncryption
                Public-Key: (2048 bit)
                Modulus:
                    00:b3:ef:22:55:0d:0b:2e:cf:e8:aa:c2:f9:dd:56:
                    40:fa:03:bd:0f:69:a8:b9:c5:8c:3f:28:d5:5f:e7:
                    4b:bd:35:1d:f5:e6:f9:e3:da:d5:00:07:39:e5:8a:
                    24:9d:d2:d9:d4:84:3e:bb:01:e5:81:3a:09:34:c1:
                    72:32:f2:af:19:28:9b:54:a9:c1:8b:c8:e0:f1:0d:
                    e1:79:07:4d:ec:82:40:15:53:4f:e9:6d:3b:60:32:
                    b5:66:66:a4:b8:71:07:53:13:59:c4:79:09:72:da:
                    62:b5:27:3a:1b:25:89:0c:73:26:c4:f5:1f:ea:7e:
                    8a:31:b5:3e:b4:1b:1b:f2:d2:11:f1:2d:fa:64:bd:
                    20:5a:5e:47:61:dd:2b:6d:52:6a:23:04:b0:94:89:
                    ac:d8:86:e1:3b:e8:c5:e2:c1:94:26:1b:14:72:da:
                    68:bc:90:83:85:46:63:f3:f1:bb:bd:f1:c5:b7:e2:
                    3d:be:8c:96:f4:a7:cd:3c:c2:82:57:22:a5:e0:aa:
                    83:1f:00:7c:d2:bd:41:35:8d:d2:cb:a8:a2:16:55:
                    bd:f1:db:7e:44:5e:26:ab:2e:4b:1b:10:61:f4:80:
                    54:00:bb:dd:67:69:49:5c:a6:e4:2f:bd:ff:11:fd:
                    dc:d2:8d:5a:e4:93:e4:cf:0d:e0:e5:6d:98:a1:20:
                    da:ad
                Exponent: 65537 (0x10001)
        X509v3 extensions:
            X509v3 Subject Key Identifier: 
                32:64:04:01:06:2B:D9:98:29:DB:01:25:D1:83:B6:EA:CC:A7:37:84
            X509v3 Authority Key Identifier: 
                keyid:F4:34:19:44:AD:14:CB:83:84:B1:C2:9B:0A:3E:A8:0C:90:79:69:7C

            X509v3 Key Usage: critical
                Certificate Sign, CRL Sign
            X509v3 Certificate Policies: 
                Policy: 1.2.840.113556.1.8000.2554.29563.49294.43847.16581.44480.6974059.2493436.1.2
                Policy: X509v3 Any Policy

            X509v3 CRL Distribution Points: 

                Full Name:
                  URI:http://localhost/tls-rootca-crl.der

            X509v3 Basic Constraints: critical
                CA:TRUE
            Authority Information Access: 
                OCSP - URI:http://ocsp-rootca

    Signature Algorithm: sha256WithRSAEncryption
         8a:ba:c6:7e:24:98:9d:fc:cb:2c:b3:24:6d:71:9d:ec:34:05:
         14:45:a7:e8:0e:a0:db:b4:0a:08:94:2b:91:a8:e7:2e:3d:9a:
         e4:13:97:a8:af:bd:35:de:22:1b:3a:43:23:34:70:d3:67:da:
         86:71:ab:7f:da:8c:00:a9:b5:24:db:e1:1a:78:e8:e2:e3:e5:
         ba:35:a1:bd:5c:36:5f:36:ec:ee:da:f7:21:61:5e:9f:89:5a:
         6e:84:00:7d:f9:a0:e8:be:4a:14:0d:f9:d7:01:f5:43:7c:bf:
         5b:48:3b:a9:94:47:f8:14:28:4f:0a:92:4c:0d:38:44:7a:15:
         ea:e9:29:55:6e:24:93:71:58:71:6a:af:47:db:d3:4d:b4:5e:
         20:1c:51:48:b9:9d:3c:e4:56:4c:ff:f6:79:ea:91:2e:8d:2a:
         ef:ab:4e:46:a7:31:99:2b:01:17:cd:1d:bd:fb:04:a1:58:f5:
         a2:b0:b3:5f:45:c2:24:5d:ed:e1:65:b9:aa:bb:92:c8:27:e2:
         a9:b0:43:35:ca:5e:3a:9b:5b:ec:ac:b4:d9:d6:ed:78:26:02:
         68:a1:72:e6:d2:9d:bb:45:ea:8e:24:2a:12:0a:cf:3b:63:a4:
         16:42:b9:8b:81:ac:38:ab:5f:01:34:a7:b2:2b:a7:33:ee:bb:
         9a:b0:d4:f1
-----BEGIN CERTIFICATE-----
MIIESjCCAzKgAwIBAgIJAOZXIoRTHHmHMA0GCSqGSIb3DQEBCwUAMFwxCzAJBgNV
BAYTAkZSMRYwFAYDVQQKEw1Nb24gT3JnYW5pc21lMRcwFQYDVQQLEw4wMDAyIDE0
NzI1ODM2OTEcMBoGA1UECxMTT3BlblNTTCBUTFMgUm9vdCBDQTAeFw0xMjA0MTQw
ODUxMDZaFw0xODA0MTQwODUxMDZaMGMxCzAJBgNVBAYTAkZSMRYwFAYDVQQKEw1N
b24gT3JnYW5pc21lMRcwFQYDVQQLEw4wMDAyIDE0NzI1ODM2OTEjMCEGA1UECxMa
T3BlblNTTCBUTFMgU3Vib3JkaW5hdGUgQ0EwggEiMA0GCSqGSIb3DQEBAQUAA4IB
DwAwggEKAoIBAQCz7yJVDQsuz+iqwvndVkD6A70Paai5xYw/KNVf50u9NR315vnj
2tUABznliiSd0tnUhD67AeWBOgk0wXIy8q8ZKJtUqcGLyODxDeF5B03sgkAVU0/p
bTtgMrVmZqS4cQdTE1nEeQly2mK1JzobJYkMcybE9R/qfooxtT60Gxvy0hHxLfpk
vSBaXkdh3SttUmojBLCUiazYhuE76MXiwZQmGxRy2mi8kIOFRmPz8bu98cW34j2+
jJb0p808woJXIqXgqoMfAHzSvUE1jdLLqKIWVb3x235EXiarLksbEGH0gFQAu91n
aUlcpuQvvf8R/dzSjVrkk+TPDeDlbZihINqtAgMBAAGjggEGMIIBAjAdBgNVHQ4E
FgQUMmQEAQYr2Zgp2wEl0YO26synN4QwHwYDVR0jBBgwFoAU9DQZRK0Uy4OEscKb
Cj6oDJB5aXwwDgYDVR0PAQH/BAQDAgEGMDkGA1UdIAQyMDAwJgYkKoZIhvcUAb5A
k3qB5nuDgQ6C1keBgUWC20CDqdRrgZiXfAECMAYGBFUdIAAwNAYDVR0fBC0wKzAp
oCegJYYjaHR0cDovL2xvY2FsaG9zdC90bHMtcm9vdGNhLWNybC5kZXIwDwYDVR0T
AQH/BAUwAwEB/zAuBggrBgEFBQcBAQQiMCAwHgYIKwYBBQUHMAGGEmh0dHA6Ly9v
Y3NwLXJvb3RjYTANBgkqhkiG9w0BAQsFAAOCAQEAirrGfiSYnfzLLLMkbXGd7DQF
FEWn6A6g27QKCJQrkajnLj2a5BOXqK+9Nd4iGzpDIzRw02fahnGrf9qMAKm1JNvh
Gnjo4uPlujWhvVw2Xzbs7tr3IWFen4laboQAffmg6L5KFA351wH1Q3y/W0g7qZRH
+BQoTwqSTA04RHoV6ukpVW4kk3FYcWqvR9vTTbReIBxRSLmdPORWTP/2eeqRLo0q
76tORqcxmSsBF80dvfsEoVj1orCzX0XCJF3t4WW5qruSyCfiqbBDNcpeOptb7Ky0
2dbteCYCaKFy5tKdu0XqjiQqEgrPO2OkFkK5i4GsOKtfATSnsiunM+67mrDU8Q==
-----END CERTIFICATE-----
