Certificate:
    Data:
        Version: 3 (0x2)
        Serial Number:
            36:a8:2f:83:24:32:71:c8
    Signature Algorithm: sha256WithRSAEncryption
        Issuer: C=FR, O=Mon Organisme, OU=0002 147258369, OU=OpenSSL TLS Subordinate CA
        Validity
            Not Before: Apr 14 08:51:08 2012 GMT
            Not After : Apr 14 08:51:08 2013 GMT
        Subject: jurC=FR/businessCategory=Private Organization/serialNumber=789456123, C=FR/postalCode=99000, ST=France, L=Ma Ville/street=1 rue du Village, O=Ma Boutique, OU=0002 789456123, CN=localhost
        Subject Public Key Info:
            Public Key Algorithm: rsaEncryption
                Public-Key: (2048 bit)
                Modulus:
                    00:d3:c2:27:c6:5a:ab:ac:de:ef:cb:05:f0:a5:fe:
                    ce:52:86:39:f9:9f:4b:a7:f7:dd:3a:67:da:03:62:
                    93:ca:21:e6:8c:cc:ff:b2:a0:39:92:df:f4:d0:0e:
                    ea:6a:a8:8d:34:36:22:66:79:cb:9f:78:3d:c6:f3:
                    5f:24:68:77:a9:c6:6f:c8:d1:7a:c7:6f:50:3b:ac:
                    80:8b:29:f1:92:75:65:26:a9:ee:35:4c:f3:5b:49:
                    04:6d:30:f2:03:91:4a:fe:39:5c:47:29:94:7b:f0:
                    28:18:34:1b:fc:d7:65:de:2c:65:a2:d9:fe:b7:fa:
                    e9:15:25:32:45:cf:fd:de:3a:a7:66:89:0b:3f:55:
                    49:ee:c6:58:6e:ed:13:5e:99:3b:c1:e2:bf:28:62:
                    3f:fe:cb:8d:ad:7b:61:48:28:ee:22:06:54:3d:92:
                    17:b9:8a:72:26:f0:f4:43:b1:ba:16:30:25:ca:f2:
                    ac:b8:0d:98:1f:d0:21:dd:5c:79:1f:d1:18:a4:10:
                    eb:b2:f2:17:67:a1:f9:20:a8:9a:08:f0:58:b0:5f:
                    46:3d:97:5e:ce:69:21:33:bc:be:b3:5c:93:50:7e:
                    be:d1:14:30:58:93:ea:96:b1:36:91:d2:74:5c:61:
                    30:7b:c2:81:e7:3b:0f:c1:db:7c:92:ec:66:15:3d:
                    cf:47
                Exponent: 65537 (0x10001)
        X509v3 extensions:
            X509v3 Subject Key Identifier: 
                A2:3D:D4:87:56:89:F8:65:9B:67:AB:82:4A:BB:AE:42:D8:F6:30:E3
            X509v3 Authority Key Identifier: 
                keyid:32:64:04:01:06:2B:D9:98:29:DB:01:25:D1:83:B6:EA:CC:A7:37:84

            X509v3 Key Usage: critical
                Digital Signature, Key Encipherment
            X509v3 Certificate Policies: 
                Policy: 1.2.840.113556.1.8000.2554.29563.49294.43847.16581.44480.6974059.2493436.1.3
                  CPS: http://tiny.cc/aj8hcw

            X509v3 CRL Distribution Points: 

                Full Name:
                  URI:http://localhost/tls-subca-crl.der

            X509v3 Basic Constraints: critical
                CA:FALSE
            X509v3 Extended Key Usage: 
                TLS Web Server Authentication
            Authority Information Access: 
                OCSP - URI:http://ocsp-subca

    Signature Algorithm: sha256WithRSAEncryption
         97:13:c8:b5:c9:ea:13:38:c8:f7:f7:ef:74:41:d4:0d:d1:8e:
         45:98:07:8f:30:06:f6:17:60:c5:8c:a7:76:b4:1a:b5:03:26:
         d2:56:04:52:ee:0d:54:7a:83:0e:f8:ae:95:89:d9:5c:eb:46:
         93:0e:61:56:95:bc:80:3c:fe:ed:4d:1d:db:57:2a:64:ee:8f:
         18:25:a1:38:1c:c7:2a:b4:f6:3b:be:61:d3:2d:c1:6f:29:1f:
         64:2f:11:79:2f:e6:01:08:55:30:da:76:93:72:cd:c2:30:3b:
         f3:c3:fd:a4:96:b9:2c:25:e5:2f:59:00:64:d5:d2:ca:b8:54:
         fe:b3:0b:a7:aa:65:df:95:51:a0:ae:b0:ab:c9:8f:d1:66:4e:
         ba:36:1c:1b:42:78:f8:6e:a9:3a:55:59:55:cf:31:2c:10:26:
         1b:9c:23:2b:c3:3c:52:a5:75:14:04:6c:6f:d4:3f:39:c0:b7:
         21:1f:0b:5e:68:13:f6:49:77:de:52:1b:37:5d:3f:44:42:58:
         dd:35:c4:35:77:12:aa:d3:0c:b7:b8:77:f8:19:fe:a4:b6:e8:
         9f:3a:85:7d:6e:f6:d8:ea:b7:d3:2f:c9:89:d3:27:8e:7d:a8:
         3a:53:d0:f6:03:87:95:11:f8:a7:e2:29:4e:19:35:65:39:2d:
         b6:c3:0b:99
-----BEGIN CERTIFICATE-----
MIIFAjCCA+qgAwIBAgIINqgvgyQyccgwDQYJKoZIhvcNAQELBQAwYzELMAkGA1UE
BhMCRlIxFjAUBgNVBAoTDU1vbiBPcmdhbmlzbWUxFzAVBgNVBAsTDjAwMDIgMTQ3
MjU4MzY5MSMwIQYDVQQLExpPcGVuU1NMIFRMUyBTdWJvcmRpbmF0ZSBDQTAeFw0x
MjA0MTQwODUxMDhaFw0xMzA0MTQwODUxMDhaMIHnMRMwEQYLKwYBBAGCNzwCAQMT
AkZSMR0wGwYDVQQPExRQcml2YXRlIE9yZ2FuaXphdGlvbjESMBAGA1UEBRMJNzg5
NDU2MTIzMQswCQYDVQQGEwJGUjEOMAwGA1UEERMFOTkwMDAxDzANBgNVBAgTBkZy
YW5jZTERMA8GA1UEBxMITWEgVmlsbGUxGTAXBgNVBAkTEDEgcnVlIGR1IFZpbGxh
Z2UxFDASBgNVBAoTC01hIEJvdXRpcXVlMRcwFQYDVQQLEw4wMDAyIDc4OTQ1NjEy
MzESMBAGA1UEAxMJbG9jYWxob3N0MIIBIjANBgkqhkiG9w0BAQEFAAOCAQ8AMIIB
CgKCAQEA08InxlqrrN7vywXwpf7OUoY5+Z9Lp/fdOmfaA2KTyiHmjMz/sqA5kt/0
0A7qaqiNNDYiZnnLn3g9xvNfJGh3qcZvyNF6x29QO6yAiynxknVlJqnuNUzzW0kE
bTDyA5FK/jlcRymUe/AoGDQb/Ndl3ixlotn+t/rpFSUyRc/93jqnZokLP1VJ7sZY
bu0TXpk7weK/KGI//suNrXthSCjuIgZUPZIXuYpyJvD0Q7G6FjAlyvKsuA2YH9Ah
3Vx5H9EYpBDrsvIXZ6H5IKiaCPBYsF9GPZdezmkhM7y+s1yTUH6+0RQwWJPqlrE2
kdJ0XGEwe8KB5zsPwdt8kuxmFT3PRwIDAQABo4IBMzCCAS8wHQYDVR0OBBYEFKI9
1IdWifhlm2ergkq7rkLY9jDjMB8GA1UdIwQYMBaAFDJkBAEGK9mYKdsBJdGDturM
pzeEMA4GA1UdDwEB/wQEAwIFoDBWBgNVHSAETzBNMEsGJCqGSIb3FAG+QJN6geZ7
g4EOgtZHgYFFgttAg6nUa4GYl3wBAzAjMCEGCCsGAQUFBwIBFhVodHRwOi8vdGlu
eS5jYy9hajhoY3cwMwYDVR0fBCwwKjAooCagJIYiaHR0cDovL2xvY2FsaG9zdC90
bHMtc3ViY2EtY3JsLmRlcjAMBgNVHRMBAf8EAjAAMBMGA1UdJQQMMAoGCCsGAQUF
BwMBMC0GCCsGAQUFBwEBBCEwHzAdBggrBgEFBQcwAYYRaHR0cDovL29jc3Atc3Vi
Y2EwDQYJKoZIhvcNAQELBQADggEBAJcTyLXJ6hM4yPf373RB1A3RjkWYB48wBvYX
YMWMp3a0GrUDJtJWBFLuDVR6gw74rpWJ2VzrRpMOYVaVvIA8/u1NHdtXKmTujxgl
oTgcxyq09ju+YdMtwW8pH2QvEXkv5gEIVTDadpNyzcIwO/PD/aSWuSwl5S9ZAGTV
0sq4VP6zC6eqZd+VUaCusKvJj9FmTro2HBtCePhuqTpVWVXPMSwQJhucIyvDPFKl
dRQEbG/UPznAtyEfC15oE/ZJd95SGzddP0RCWN01xDV3EqrTDLe4d/gZ/qS26J86
hX1u9tjqt9MvyYnTJ459qDpT0PYDh5UR+KfiKU4ZNWU5LbbDC5k=
-----END CERTIFICATE-----
