Certificate:
    Data:
        Version: 3 (0x2)
        Serial Number:
            ba:86:b9:04:f6:31:fa:c5
    Signature Algorithm: sha256WithRSAEncryption
        Issuer: C=FR, O=Mon Organisme, OU=0002 147258369, OU=OpenSSL TLS Root CA
        Validity
            Not Before: Apr 14 08:51:07 2012 GMT
            Not After : Apr 14 08:51:07 2018 GMT
        Subject: C=FR, O=Mon Organisme, OU=0002 147258369, CN=OpenSSL TLS Root CA OCSP Responder
        Subject Public Key Info:
            Public Key Algorithm: rsaEncryption
                Public-Key: (2048 bit)
                Modulus:
                    00:de:7d:09:f6:96:33:2c:b7:ca:c3:35:8a:26:06:
                    a8:cd:ab:4f:ef:34:f8:ad:7f:8f:c8:82:17:23:38:
                    d7:6a:94:29:ec:82:70:af:c3:15:7c:f8:55:95:34:
                    0b:92:68:16:81:ed:fd:1c:67:97:6b:ff:1f:ec:ac:
                    1a:18:52:0d:37:43:ee:0e:e1:fb:d4:65:43:3a:27:
                    69:13:a5:64:fc:e5:7f:24:44:74:2b:d3:fc:2f:f7:
                    44:32:6b:da:37:7d:99:32:8b:ff:73:d2:2a:5d:15:
                    53:3b:ef:48:8e:89:eb:bc:ed:c6:f9:5c:64:28:e5:
                    2f:ab:4c:88:b6:35:df:45:ca:c6:f9:29:82:9d:ce:
                    4a:8d:17:a3:10:8a:2e:4c:d5:76:b1:b1:8d:d4:66:
                    fe:2a:84:90:04:f4:9f:cf:cd:d9:a3:c9:fa:aa:7d:
                    4a:3c:7f:f5:e4:2c:f9:14:d7:38:11:6d:0e:94:52:
                    db:66:00:ca:61:63:42:da:aa:81:37:ae:ac:83:72:
                    7f:75:11:9a:3c:e8:75:1f:10:0c:ad:be:d2:fd:72:
                    60:fa:73:36:38:e9:b2:1c:f2:02:66:40:c9:88:00:
                    c3:86:51:cc:ee:0e:d0:e5:1c:ec:04:d5:9d:e0:4f:
                    7f:08:9b:b7:a0:31:e8:b2:0a:9b:a7:34:41:4a:5b:
                    e4:33
                Exponent: 65537 (0x10001)
        X509v3 extensions:
            X509v3 Subject Key Identifier: 
                58:9B:0C:6F:9F:C4:61:DE:3A:43:3C:54:CC:B1:AE:03:40:06:84:BE
            X509v3 Authority Key Identifier: 
                keyid:F4:34:19:44:AD:14:CB:83:84:B1:C2:9B:0A:3E:A8:0C:90:79:69:7C

            X509v3 Key Usage: critical
                Digital Signature
            X509v3 Certificate Policies: 
                Policy: 1.2.840.113556.1.8000.2554.29563.49294.43847.16581.44480.6974059.2493436.1.4
                  CPS: http://tiny.cc/aj8hcw

            X509v3 CRL Distribution Points: 

                Full Name:
                  URI:http://localhost/tls-rootca-crl.der

            X509v3 Basic Constraints: critical
                CA:FALSE
            X509v3 Extended Key Usage: 
                OCSP Signing
    Signature Algorithm: sha256WithRSAEncryption
         45:04:52:d6:3c:5f:71:34:10:04:68:31:97:18:6c:a2:3e:1a:
         9f:7b:b6:a4:8d:24:be:ee:f4:bf:79:2e:04:5b:e5:6f:b8:50:
         13:6c:6a:64:0f:e0:a2:f7:de:a1:28:7a:ca:b0:fa:dc:07:5d:
         ab:08:97:a0:66:84:e3:43:ff:82:19:fd:21:48:af:92:c3:67:
         25:fd:56:d0:26:f9:33:72:33:8b:9d:46:4d:b5:40:f3:01:87:
         d1:4d:c7:b3:9f:f2:66:7d:bb:b2:94:6c:0e:72:36:3e:d7:ab:
         28:b0:47:ed:53:f1:1e:b5:91:68:51:1b:fc:cd:14:f0:f8:10:
         bb:41:b9:d0:4e:a8:f1:14:3f:28:e5:13:de:2f:ad:6a:22:0d:
         fc:7f:db:5c:ff:4b:7a:d2:28:a3:52:2f:81:61:15:da:fa:1d:
         45:fc:95:c1:12:d6:dc:06:96:46:73:e8:7e:ee:60:43:06:dc:
         0b:46:5f:76:1d:bb:61:eb:27:62:c5:37:91:b1:f8:15:63:12:
         de:8e:0a:f6:2d:f1:c3:0e:ed:22:9d:3b:8a:48:59:85:90:7b:
         89:30:cd:73:cb:62:34:c1:b2:dc:c7:9c:73:e3:57:93:42:55:
         bd:78:e2:0d:cc:a3:fe:ee:44:9b:c4:a6:2a:b4:7c:12:aa:af:
         35:7b:13:92
-----BEGIN CERTIFICATE-----
MIIEUTCCAzmgAwIBAgIJALqGuQT2MfrFMA0GCSqGSIb3DQEBCwUAMFwxCzAJBgNV
BAYTAkZSMRYwFAYDVQQKEw1Nb24gT3JnYW5pc21lMRcwFQYDVQQLEw4wMDAyIDE0
NzI1ODM2OTEcMBoGA1UECxMTT3BlblNTTCBUTFMgUm9vdCBDQTAeFw0xMjA0MTQw
ODUxMDdaFw0xODA0MTQwODUxMDdaMGsxCzAJBgNVBAYTAkZSMRYwFAYDVQQKEw1N
b24gT3JnYW5pc21lMRcwFQYDVQQLEw4wMDAyIDE0NzI1ODM2OTErMCkGA1UEAxMi
T3BlblNTTCBUTFMgUm9vdCBDQSBPQ1NQIFJlc3BvbmRlcjCCASIwDQYJKoZIhvcN
AQEBBQADggEPADCCAQoCggEBAN59CfaWMyy3ysM1iiYGqM2rT+80+K1/j8iCFyM4
12qUKeyCcK/DFXz4VZU0C5JoFoHt/Rxnl2v/H+ysGhhSDTdD7g7h+9RlQzonaROl
ZPzlfyREdCvT/C/3RDJr2jd9mTKL/3PSKl0VUzvvSI6J67ztxvlcZCjlL6tMiLY1
30XKxvkpgp3OSo0XoxCKLkzVdrGxjdRm/iqEkAT0n8/N2aPJ+qp9Sjx/9eQs+RTX
OBFtDpRS22YAymFjQtqqgTeurINyf3URmjzodR8QDK2+0v1yYPpzNjjpshzyAmZA
yYgAw4ZRzO4O0OUc7ATVneBPfwibt6Ax6LIKm6c0QUpb5DMCAwEAAaOCAQUwggEB
MB0GA1UdDgQWBBRYmwxvn8Rh3jpDPFTMsa4DQAaEvjAfBgNVHSMEGDAWgBT0NBlE
rRTLg4SxwpsKPqgMkHlpfDAOBgNVHQ8BAf8EBAMCB4AwVgYDVR0gBE8wTTBLBiQq
hkiG9xQBvkCTeoHme4OBDoLWR4GBRYLbQIOp1GuBmJd8AQQwIzAhBggrBgEFBQcC
ARYVaHR0cDovL3RpbnkuY2MvYWo4aGN3MDQGA1UdHwQtMCswKaAnoCWGI2h0dHA6
Ly9sb2NhbGhvc3QvdGxzLXJvb3RjYS1jcmwuZGVyMAwGA1UdEwEB/wQCMAAwEwYD
VR0lBAwwCgYIKwYBBQUHAwkwDQYJKoZIhvcNAQELBQADggEBAEUEUtY8X3E0EARo
MZcYbKI+Gp97tqSNJL7u9L95LgRb5W+4UBNsamQP4KL33qEoesqw+twHXasIl6Bm
hOND/4IZ/SFIr5LDZyX9VtAm+TNyM4udRk21QPMBh9FNx7Of8mZ9u7KUbA5yNj7X
qyiwR+1T8R61kWhRG/zNFPD4ELtBudBOqPEUPyjlE94vrWoiDfx/21z/S3rSKKNS
L4FhFdr6HUX8lcES1twGlkZz6H7uYEMG3AtGX3Ydu2HrJ2LFN5Gx+BVjEt6OCvYt
8cMO7SKdO4pIWYWQe4kwzXPLYjTBstzHnHPjV5NCVb144g3Mo/7uRJvEpiq0fBKq
rzV7E5I=
-----END CERTIFICATE-----
