Certificate:
    Data:
        Version: 3 (0x2)
        Serial Number:
            e6:57:22:84:53:1c:79:87
    Signature Algorithm: sha256WithRSAEncryption
        Issuer: C=FR, O=Mon Organisme, OU=0002 147258369, OU=OpenSSL TLS Root CA
        Validity
            Not Before: Apr 14 08:51:06 2012 GMT
            Not After : Apr 14 08:51:06 2018 GMT
        Subject: C=FR, O=Mon Organisme, OU=0002 147258369, OU=OpenSSL TLS Subordinate CA
        Subject Public Key Info:
            Public Key Algorithm: rsaEncryption
                Public-Key: (2048 bit)
                Modulus:
                    00:b3:ef:22:55:0d:0b:2e:cf:e8:aa:c2:f9:dd:56:
                    40:fa:03:bd:0f:69:a8:b9:c5:8c:3f:28:d5:5f:e7:
                    4b:bd:35:1d:f5:e6:f9:e3:da:d5:00:07:39:e5:8a:
                    24:9d:d2:d9:d4:84:3e:bb:01:e5:81:3a:09:34:c1:
                    72:32:f2:af:19:28:9b:54:a9:c1:8b:c8:e0:f1:0d:
                    e1:79:07:4d:ec:82:40:15:53:4f:e9:6d:3b:60:32:
                    b5:66:66:a4:b8:71:07:53:13:59:c4:79:09:72:da:
                    62:b5:27:3a:1b:25:89:0c:73:26:c4:f5:1f:ea:7e:
                    8a:31:b5:3e:b4:1b:1b:f2:d2:11:f1:2d:fa:64:bd:
                    20:5a:5e:47:61:dd:2b:6d:52:6a:23:04:b0:94:89:
                    ac:d8:86:e1:3b:e8:c5:e2:c1:94:26:1b:14:72:da:
                    68:bc:90:83:85:46:63:f3:f1:bb:bd:f1:c5:b7:e2:
                    3d:be:8c:96:f4:a7:cd:3c:c2:82:57:22:a5:e0:aa:
                    83:1f:00:7c:d2:bd:41:35:8d:d2:cb:a8:a2:16:55:
                    bd:f1:db:7e:44:5e:26:ab:2e:4b:1b:10:61:f4:80:
                    54:00:bb:dd:67:69:49:5c:a6:e4:2f:bd:ff:11:fd:
                    dc:d2:8d:5a:e4:93:e4:cf:0d:e0:e5:6d:98:a1:20:
                    da:ad
                Exponent: 65537 (0x10001)
        X509v3 extensions:
            X509v3 Subject Key Identifier: 
                32:64:04:01:06:2B:D9:98:29:DB:01:25:D1:83:B6:EA:CC:A7:37:84
            X509v3 Authority Key Identifier: 
                keyid:F4:34:19:44:AD:14:CB:83:84:B1:C2:9B:0A:3E:A8:0C:90:79:69:7C

            X509v3 Key Usage: critical
                Certificate Sign, CRL Sign
            X509v3 Certificate Policies: 
                Policy: 1.2.840.113556.1.8000.2554.29563.49294.43847.16581.44480.6974059.2493436.1.2
                Policy: X509v3 Any Policy

            X509v3 CRL Distribution Points: 

                Full Name:
                  URI:http://localhost/tls-rootca-crl.der

            X509v3 Basic Constraints: critical
                CA:TRUE
            Authority Information Access: 
                OCSP - URI:http://ocsp-rootca

    Signature Algorithm: sha256WithRSAEncryption
         8a:ba:c6:7e:24:98:9d:fc:cb:2c:b3:24:6d:71:9d:ec:34:05:
         14:45:a7:e8:0e:a0:db:b4:0a:08:94:2b:91:a8:e7:2e:3d:9a:
         e4:13:97:a8:af:bd:35:de:22:1b:3a:43:23:34:70:d3:67:da:
         86:71:ab:7f:da:8c:00:a9:b5:24:db:e1:1a:78:e8:e2:e3:e5:
         ba:35:a1:bd:5c:36:5f:36:ec:ee:da:f7:21:61:5e:9f:89:5a:
         6e:84:00:7d:f9:a0:e8:be:4a:14:0d:f9:d7:01:f5:43:7c:bf:
         5b:48:3b:a9:94:47:f8:14:28:4f:0a:92:4c:0d:38:44:7a:15:
         ea:e9:29:55:6e:24:93:71:58:71:6a:af:47:db:d3:4d:b4:5e:
         20:1c:51:48:b9:9d:3c:e4:56:4c:ff:f6:79:ea:91:2e:8d:2a:
         ef:ab:4e:46:a7:31:99:2b:01:17:cd:1d:bd:fb:04:a1:58:f5:
         a2:b0:b3:5f:45:c2:24:5d:ed:e1:65:b9:aa:bb:92:c8:27:e2:
         a9:b0:43:35:ca:5e:3a:9b:5b:ec:ac:b4:d9:d6:ed:78:26:02:
         68:a1:72:e6:d2:9d:bb:45:ea:8e:24:2a:12:0a:cf:3b:63:a4:
         16:42:b9:8b:81:ac:38:ab:5f:01:34:a7:b2:2b:a7:33:ee:bb:
         9a:b0:d4:f1
-----BEGIN CERTIFICATE-----
MIIESjCCAzKgAwIBAgIJAOZXIoRTHHmHMA0GCSqGSIb3DQEBCwUAMFwxCzAJBgNV
BAYTAkZSMRYwFAYDVQQKEw1Nb24gT3JnYW5pc21lMRcwFQYDVQQLEw4wMDAyIDE0
NzI1ODM2OTEcMBoGA1UECxMTT3BlblNTTCBUTFMgUm9vdCBDQTAeFw0xMjA0MTQw
ODUxMDZaFw0xODA0MTQwODUxMDZaMGMxCzAJBgNVBAYTAkZSMRYwFAYDVQQKEw1N
b24gT3JnYW5pc21lMRcwFQYDVQQLEw4wMDAyIDE0NzI1ODM2OTEjMCEGA1UECxMa
T3BlblNTTCBUTFMgU3Vib3JkaW5hdGUgQ0EwggEiMA0GCSqGSIb3DQEBAQUAA4IB
DwAwggEKAoIBAQCz7yJVDQsuz+iqwvndVkD6A70Paai5xYw/KNVf50u9NR315vnj
2tUABznliiSd0tnUhD67AeWBOgk0wXIy8q8ZKJtUqcGLyODxDeF5B03sgkAVU0/p
bTtgMrVmZqS4cQdTE1nEeQly2mK1JzobJYkMcybE9R/qfooxtT60Gxvy0hHxLfpk
vSBaXkdh3SttUmojBLCUiazYhuE76MXiwZQmGxRy2mi8kIOFRmPz8bu98cW34j2+
jJb0p808woJXIqXgqoMfAHzSvUE1jdLLqKIWVb3x235EXiarLksbEGH0gFQAu91n
aUlcpuQvvf8R/dzSjVrkk+TPDeDlbZihINqtAgMBAAGjggEGMIIBAjAdBgNVHQ4E
FgQUMmQEAQYr2Zgp2wEl0YO26synN4QwHwYDVR0jBBgwFoAU9DQZRK0Uy4OEscKb
Cj6oDJB5aXwwDgYDVR0PAQH/BAQDAgEGMDkGA1UdIAQyMDAwJgYkKoZIhvcUAb5A
k3qB5nuDgQ6C1keBgUWC20CDqdRrgZiXfAECMAYGBFUdIAAwNAYDVR0fBC0wKzAp
oCegJYYjaHR0cDovL2xvY2FsaG9zdC90bHMtcm9vdGNhLWNybC5kZXIwDwYDVR0T
AQH/BAUwAwEB/zAuBggrBgEFBQcBAQQiMCAwHgYIKwYBBQUHMAGGEmh0dHA6Ly9v
Y3NwLXJvb3RjYTANBgkqhkiG9w0BAQsFAAOCAQEAirrGfiSYnfzLLLMkbXGd7DQF
FEWn6A6g27QKCJQrkajnLj2a5BOXqK+9Nd4iGzpDIzRw02fahnGrf9qMAKm1JNvh
Gnjo4uPlujWhvVw2Xzbs7tr3IWFen4laboQAffmg6L5KFA351wH1Q3y/W0g7qZRH
+BQoTwqSTA04RHoV6ukpVW4kk3FYcWqvR9vTTbReIBxRSLmdPORWTP/2eeqRLo0q
76tORqcxmSsBF80dvfsEoVj1orCzX0XCJF3t4WW5qruSyCfiqbBDNcpeOptb7Ky0
2dbteCYCaKFy5tKdu0XqjiQqEgrPO2OkFkK5i4GsOKtfATSnsiunM+67mrDU8Q==
-----END CERTIFICATE-----
