Certificate:
    Data:
        Version: 3 (0x2)
        Serial Number:
            0e:58:b4:51:1b:2a:16:8c
    Signature Algorithm: sha256WithRSAEncryption
        Issuer: C=FR, O=Mon Organisme, OU=0002 147258369, OU=OpenSSL TLS Subordinate CA
        Validity
            Not Before: Apr 14 08:51:08 2012 GMT
            Not After : Apr 14 08:51:08 2018 GMT
        Subject: C=FR, O=Mon Organisme, OU=0002 147258369, CN=OpenSSL TLS Subordinate CA OCSP Responder
        Subject Public Key Info:
            Public Key Algorithm: rsaEncryption
                Public-Key: (2048 bit)
                Modulus:
                    00:c6:e4:5a:eb:d3:41:f0:0c:4e:c2:6c:54:dd:63:
                    70:77:75:e3:5b:78:fa:21:4a:2f:5c:5e:6a:71:5a:
                    7e:75:17:ae:f9:43:f6:5f:fb:7f:5c:0d:ce:f5:36:
                    f1:16:f7:79:5d:f6:cd:97:17:4b:8c:12:cf:6c:86:
                    cd:e0:7d:62:9b:43:de:2e:9e:09:2a:ef:fa:14:2a:
                    0d:23:dd:42:10:49:90:b5:7a:7b:81:9f:15:fd:4d:
                    d2:c7:3d:02:2e:6d:b0:76:ab:5c:c4:82:0e:2c:7a:
                    c9:27:92:2e:64:48:9a:25:a0:ec:ae:e9:00:e7:36:
                    21:87:83:9a:6d:5a:2b:97:33:8e:5b:d4:73:06:b9:
                    1a:8b:06:4b:23:b8:1d:43:ab:e5:4c:2e:86:29:b7:
                    8e:d3:2f:8c:8a:db:76:26:af:8f:55:d7:14:68:ba:
                    8b:a7:af:f4:30:e7:7f:70:ae:2b:3c:72:4e:9a:1e:
                    2c:05:4a:3b:49:02:6f:07:e7:6f:5e:46:74:c2:9a:
                    27:ca:29:58:b3:74:68:1b:ed:a8:29:bb:a4:ab:7a:
                    00:5e:0d:20:d8:60:81:1a:41:03:56:4b:46:22:ed:
                    c3:bb:22:8d:21:ae:e5:46:6d:af:ab:bc:67:76:ac:
                    08:61:c8:72:a2:9f:9d:b2:01:ca:b5:76:a3:4d:c9:
                    7b:5b
                Exponent: 65537 (0x10001)
        X509v3 extensions:
            X509v3 Subject Key Identifier: 
                4A:9F:6D:CE:11:52:FA:FC:80:6A:85:F4:65:34:33:5A:8D:0E:07:1C
            X509v3 Authority Key Identifier: 
                keyid:32:64:04:01:06:2B:D9:98:29:DB:01:25:D1:83:B6:EA:CC:A7:37:84

            X509v3 Key Usage: critical
                Digital Signature
            X509v3 Certificate Policies: 
                Policy: 1.2.840.113556.1.8000.2554.29563.49294.43847.16581.44480.6974059.2493436.1.5
                  CPS: http://tiny.cc/aj8hcw

            X509v3 CRL Distribution Points: 

                Full Name:
                  URI:http://localhost/tls-subca-crl.der

            X509v3 Basic Constraints: critical
                CA:FALSE
            X509v3 Extended Key Usage: 
                OCSP Signing
    Signature Algorithm: sha256WithRSAEncryption
         7e:02:64:43:f4:7f:f1:80:e1:a9:03:c8:e8:e1:4f:86:09:cd:
         16:dc:d8:9c:12:15:77:30:51:15:19:eb:ce:0f:45:fa:b0:24:
         49:7c:1a:3c:bb:c6:ca:7d:aa:20:f1:13:0b:3a:d5:de:09:ce:
         07:cf:62:18:c6:4d:7e:4a:79:06:d4:07:26:ae:0a:c8:10:cb:
         04:dd:5e:a5:1d:af:f1:97:68:94:65:4e:d8:61:a3:8b:0f:2b:
         62:1a:15:7c:82:3a:85:3a:25:a4:fd:88:a2:10:55:76:aa:53:
         1d:ef:b4:42:c7:a3:1f:7d:2a:9b:8d:e3:b3:76:15:2e:c2:69:
         6c:44:ef:b5:37:4e:8e:53:dc:52:e0:9c:8b:2c:fe:a0:e9:13:
         ca:73:66:3a:b6:3c:fa:7c:ea:e3:75:0b:7b:f3:e9:3b:3d:75:
         1a:51:ba:7f:06:f4:6f:ff:3f:0c:dc:39:3f:3b:e2:7f:a5:e6:
         99:d4:7b:e1:a1:3f:57:37:26:04:68:c1:10:e9:89:73:3a:64:
         06:a7:92:2c:1e:2d:49:49:00:01:ac:95:d6:fb:09:a9:e1:89:
         08:bf:66:fd:6e:b6:69:40:75:c6:88:a2:8b:8b:d6:28:71:44:
         6e:75:54:15:69:d9:1f:6e:b9:95:6a:e4:34:2c:ef:77:3d:6d:
         8c:ff:0a:e4
-----BEGIN CERTIFICATE-----
MIIEXTCCA0WgAwIBAgIIDli0URsqFowwDQYJKoZIhvcNAQELBQAwYzELMAkGA1UE
BhMCRlIxFjAUBgNVBAoTDU1vbiBPcmdhbmlzbWUxFzAVBgNVBAsTDjAwMDIgMTQ3
MjU4MzY5MSMwIQYDVQQLExpPcGVuU1NMIFRMUyBTdWJvcmRpbmF0ZSBDQTAeFw0x
MjA0MTQwODUxMDhaFw0xODA0MTQwODUxMDhaMHIxCzAJBgNVBAYTAkZSMRYwFAYD
VQQKEw1Nb24gT3JnYW5pc21lMRcwFQYDVQQLEw4wMDAyIDE0NzI1ODM2OTEyMDAG
A1UEAxMpT3BlblNTTCBUTFMgU3Vib3JkaW5hdGUgQ0EgT0NTUCBSZXNwb25kZXIw
ggEiMA0GCSqGSIb3DQEBAQUAA4IBDwAwggEKAoIBAQDG5Frr00HwDE7CbFTdY3B3
deNbePohSi9cXmpxWn51F675Q/Zf+39cDc71NvEW93ld9s2XF0uMEs9shs3gfWKb
Q94ungkq7/oUKg0j3UIQSZC1enuBnxX9TdLHPQIubbB2q1zEgg4sesknki5kSJol
oOyu6QDnNiGHg5ptWiuXM45b1HMGuRqLBksjuB1Dq+VMLoYpt47TL4yK23Ymr49V
1xRouounr/Qw539wris8ck6aHiwFSjtJAm8H529eRnTCmifKKVizdGgb7agpu6Sr
egBeDSDYYIEaQQNWS0Yi7cO7Io0hruVGba+rvGd2rAhhyHKin52yAcq1dqNNyXtb
AgMBAAGjggEEMIIBADAdBgNVHQ4EFgQUSp9tzhFS+vyAaoX0ZTQzWo0OBxwwHwYD
VR0jBBgwFoAUMmQEAQYr2Zgp2wEl0YO26synN4QwDgYDVR0PAQH/BAQDAgeAMFYG
A1UdIARPME0wSwYkKoZIhvcUAb5Ak3qB5nuDgQ6C1keBgUWC20CDqdRrgZiXfAEF
MCMwIQYIKwYBBQUHAgEWFWh0dHA6Ly90aW55LmNjL2FqOGhjdzAzBgNVHR8ELDAq
MCigJqAkhiJodHRwOi8vbG9jYWxob3N0L3Rscy1zdWJjYS1jcmwuZGVyMAwGA1Ud
EwEB/wQCMAAwEwYDVR0lBAwwCgYIKwYBBQUHAwkwDQYJKoZIhvcNAQELBQADggEB
AH4CZEP0f/GA4akDyOjhT4YJzRbc2JwSFXcwURUZ684PRfqwJEl8Gjy7xsp9qiDx
Ews61d4JzgfPYhjGTX5KeQbUByauCsgQywTdXqUdr/GXaJRlTthho4sPK2IaFXyC
OoU6JaT9iKIQVXaqUx3vtELHox99KpuN47N2FS7CaWxE77U3To5T3FLgnIss/qDp
E8pzZjq2PPp86uN1C3vz6Ts9dRpRun8G9G//PwzcOT874n+l5pnUe+GhP1c3JgRo
wRDpiXM6ZAankiweLUlJAAGsldb7CanhiQi/Zv1utmlAdcaIoouL1ihxRG51VBVp
2R9uuZVq5DQs73c9bYz/CuQ=
-----END CERTIFICATE-----
